(dp0
S'attributes'
p1
(dp2
S'school'
p3
S'epita'
p4
sS'group'
p5
S'group24'
p6
sS'year'
p7
S'2014'
p8
ssS'token'
p9
S'00b050faf6a562d0aa395cb7cd4eb319'
p10
sS'identifier'
p11
S'epita::2014::group24'
p12
sS'type'
p13
g5
sS'members'
p14
(lp15
(dp16
S'login'
p17
S'julien.garagnon'
p18
sS'name'
p19
S'Julien GARAGNON'
p20
sS'email'
p21
S'garagn_j@epita.fr'
p22
sa(dp23
g17
S'meredith.laport'
p24
sg19
S'Meredith Laport'
p25
sg21
S'laport_a@epita.fr'
p26
sas.