(dp0
S'attributes'
p1
(dp2
S'school'
p3
S'epita'
p4
sS'group'
p5
S'group24'
p6
sS'student'
p7
S'julien.garagnon'
p8
sS'year'
p9
S'2014'
p10
ssS'token'
p11
S'3166cb22ce38eed25f5a2caa3cb042d6'
p12
sS'identifier'
p13
S'epita::2014::group24::julien.garagnon'
p14
sS'type'
p15
g7
sS'members'
p16
(lp17
(dp18
S'login'
p19
g8
sS'name'
p20
S'Julien GARAGNON'
p21
sS'email'
p22
S'garagn_j@epita.fr'
p23
sas.